target datalayout = "e-m:e-p270:32:32-p271:32:32-p272:64:64-i64:64-i128:128-f80:128-n8:16:32:64-S128"
target triple = "x86_64-pc-linux-gnu"

%struct.stbi__write_context = type { ptr, ptr, [64 x i8], i32 }

@.str.84 = private unnamed_addr constant [3 x i8] c"wb\00", align 1

; Function Attrs: mustprogress nounwind uwtable
define internal void @_ZL27stbi__start_write_callbacksP19stbi__write_contextPFvPvS1_iES1_(ptr noundef %0, ptr noundef %1, ptr noundef %2) #0 {
  %4 = alloca ptr, align 8
  %5 = alloca ptr, align 8
  %6 = alloca ptr, align 8
  store ptr %0, ptr %4, align 8, !tbaa !10
  store ptr %1, ptr %5, align 8, !tbaa !10
  store ptr %2, ptr %6, align 8, !tbaa !10
  %7 = load ptr, ptr %5, align 8, !tbaa !10
  %8 = load ptr, ptr %4, align 8, !tbaa !10
  %9 = getelementptr inbounds nuw %struct.stbi__write_context, ptr %8, i32 0, i32 0
  store ptr %7, ptr %9, align 8, !tbaa !329
  %10 = load ptr, ptr %6, align 8, !tbaa !10
  %11 = load ptr, ptr %4, align 8, !tbaa !10
  %12 = getelementptr inbounds nuw %struct.stbi__write_context, ptr %11, i32 0, i32 1
  store ptr %10, ptr %12, align 8, !tbaa !331
  ret void
}

; Function Attrs: mustprogress uwtable
define internal noundef ptr @_ZL12stbiw__fopenPKcS0_(ptr noundef %0, ptr noundef %1) #2 {
  %3 = alloca ptr, align 8
  %4 = alloca ptr, align 8
  %5 = alloca ptr, align 8
  store ptr %0, ptr %3, align 8, !tbaa !5
  store ptr %1, ptr %4, align 8, !tbaa !5
  call void @llvm.lifetime.start.p0(i64 8, ptr %5) #22
  %6 = load ptr, ptr %3, align 8, !tbaa !5
  %7 = load ptr, ptr %4, align 8, !tbaa !5
  %8 = call noalias ptr @fopen(ptr noundef %6, ptr noundef %7)
  store ptr %8, ptr %5, align 8, !tbaa !15
  %9 = load ptr, ptr %5, align 8, !tbaa !15
  call void @llvm.lifetime.end.p0(i64 8, ptr %5) #22
  ret ptr %9
}

; Function Attrs: mustprogress uwtable
define internal void @_ZL20stbi__end_write_fileP19stbi__write_context(ptr noundef %0) #2 {
  %2 = alloca ptr, align 8
  store ptr %0, ptr %2, align 8, !tbaa !10
  %3 = load ptr, ptr %2, align 8, !tbaa !10
  %4 = getelementptr inbounds nuw %struct.stbi__write_context, ptr %3, i32 0, i32 1
  %5 = load ptr, ptr %4, align 8, !tbaa !331
  %6 = call i32 @fclose(ptr noundef %5)
  ret void
}

; Function Attrs: mustprogress uwtable
define internal noundef i32 @_ZL22stbi__start_write_fileP19stbi__write_contextPKc(ptr noundef %0, ptr noundef %1) #2 {
  %3 = alloca ptr, align 8
  %4 = alloca ptr, align 8
  %5 = alloca ptr, align 8
  store ptr %0, ptr %3, align 8, !tbaa !10
  store ptr %1, ptr %4, align 8, !tbaa !5
  call void @llvm.lifetime.start.p0(i64 8, ptr %5) #22
  %6 = load ptr, ptr %4, align 8, !tbaa !5
  %7 = call noundef ptr @_ZL12stbiw__fopenPKcS0_(ptr noundef %6, ptr noundef @.str.84)
  store ptr %7, ptr %5, align 8, !tbaa !15
  %8 = load ptr, ptr %3, align 8, !tbaa !10
  %9 = load ptr, ptr %5, align 8, !tbaa !15
  call void @_ZL27stbi__start_write_callbacksP19stbi__write_contextPFvPvS1_iES1_(ptr noundef %8, ptr noundef @_ZL17stbi__stdio_writePvS_i, ptr noundef %9)
  %10 = load ptr, ptr %5, align 8, !tbaa !15
  %11 = icmp ne ptr %10, null
  %12 = zext i1 %11 to i32
  call void @llvm.lifetime.end.p0(i64 8, ptr %5) #22
  ret i32 %12
}

; Function Attrs: mustprogress uwtable
define dso_local i32 @stbi_write_hdr(ptr noundef %0, i32 noundef %1, i32 noundef %2, i32 noundef %3, ptr noundef %4) #2 {
  %6 = alloca i32, align 4
  %7 = alloca ptr, align 8
  %8 = alloca i32, align 4
  %9 = alloca i32, align 4
  %10 = alloca i32, align 4
  %11 = alloca ptr, align 8
  %12 = alloca %struct.stbi__write_context, align 8
  %13 = alloca i32, align 4
  %14 = alloca i32, align 4
  store ptr %0, ptr %7, align 8, !tbaa !5
  store i32 %1, ptr %8, align 4, !tbaa !11
  store i32 %2, ptr %9, align 4, !tbaa !11
  store i32 %3, ptr %10, align 4, !tbaa !11
  store ptr %4, ptr %11, align 8, !tbaa !302
  call void @llvm.lifetime.start.p0(i64 88, ptr %12) #22
  call void @llvm.memset.p0.i64(ptr align 8 %12, i8 0, i64 88, i1 false)
  %15 = load ptr, ptr %7, align 8, !tbaa !5
  %16 = call noundef i32 @_ZL22stbi__start_write_fileP19stbi__write_contextPKc(ptr noundef %12, ptr noundef %15)
  %17 = icmp ne i32 %16, 0
  br i1 %17, label %18, label %25

18:                                               ; preds = %5
  call void @llvm.lifetime.start.p0(i64 4, ptr %13) #22
  %19 = load i32, ptr %8, align 4, !tbaa !11
  %20 = load i32, ptr %9, align 4, !tbaa !11
  %21 = load i32, ptr %10, align 4, !tbaa !11
  %22 = load ptr, ptr %11, align 8, !tbaa !302
  %23 = call noundef i32 @_ZL19stbi_write_hdr_coreP19stbi__write_contextiiiPf(ptr noundef %12, i32 noundef %19, i32 noundef %20, i32 noundef %21, ptr noundef %22)
  store i32 %23, ptr %13, align 4, !tbaa !11
  call void @_ZL20stbi__end_write_fileP19stbi__write_context(ptr noundef %12)
  %24 = load i32, ptr %13, align 4, !tbaa !11
  store i32 %24, ptr %6, align 4
  store i32 1, ptr %14, align 4
  call void @llvm.lifetime.end.p0(i64 4, ptr %13) #22
  br label %26

25:                                               ; preds = %5
  store i32 0, ptr %6, align 4
  store i32 1, ptr %14, align 4
  br label %26

26:                                               ; preds = %25, %18
  call void @llvm.lifetime.end.p0(i64 88, ptr %12) #22
  %27 = load i32, ptr %6, align 4
  ret i32 %27
}