; Function Attrs: mustprogress uwtable
define dso_local range(i32 0, 2) i32 @stbi_write_hdr(ptr noundef readonly captures(none) %0, i32 noundef %1, i32 noundef %2, i32 noundef %3, ptr noundef %4) local_unnamed_addr #4 {
  %6 = tail call noalias noundef ptr @fopen(ptr noundef readonly %0, ptr noundef nonnull @.str.84)
  %.not8 = icmp eq ptr %6, null
  br i1 %.not8, label %10, label %7

7:                                                ; preds = %5
  %8 = tail call fastcc noundef i32 @_ZL19stbi_write_hdr_coreP19stbi__write_contextiiiPf(ptr nonnull @_ZL17stbi__stdio_writePvS_i, ptr nonnull %6, i32 noundef %1, i32 noundef %2, i32 noundef %3, ptr noundef %4)
  %9 = tail call i32 @fclose(ptr noundef nonnull %6)
  br label %10

10:                                               ; preds = %5, %7
  %.0 = phi i32 [ %8, %7 ], [ 0, %5 ]
  ret i32 %.0
}